X-Makina Assembler - Version XM-23p Single Pass+ Assembler - Release 24.05.16
Input file name: Test10.asm
Time of assembly: Tue 18 Jun 2024 20:57:53 
  1	    	     	;
  2	    	     	; Loader Test 10 Program Debugging
  3	    	     	;
  4	    	     	        Data
  5	    	     	        org #800
  6	    	     	
  7	0800	EDFE	        Word	#EDFE
  8	0802	EFBE	        Word	#EFBE
  9	    	     	
 10	    	     	        Code
 11	    	     	        org #100
 12	    	     	Start
 13	    	     	;Branch Instructions
 14	    	     	
 15	0100	65F0	MovX    movl    #ffbe,R0
 16	0102	7F79	        movh    #efff,R1
 17	0104	6FD2	        movlz   #fffa,R2
 18	0106	7673	        movls   #00ce,R3
 19	    	     	
 20	0108	4001	Regs    add     R0,R1
 21	010A	40D3	        add.b   $2,R3
 22	010C	4125	        addc    R4,R5
 23	010E	41F0	        addc.b  $32,R0
 24	0110	4201	        sub     R0,R1
 25	0112	42D3	        sub.b   $2,R3
 26	0114	4325	        subc    R4,R5
 27	0116	43F0	        subc.b  $32,R0
 28	0118	4401	        dadd    R0,R1
 29	011A	44D3	        dadd.b  $2,R3
 30	011C	4525	        cmp     R4,R5
 31	011E	45F0	        cmp.b   $32,R0
 32	0120	4601	        xor     R0,R1
 33	0122	46D3	        xor.b   $2,R3
 34	0124	4725	        and     R4,R5
 35	0126	47F0	        and.b   $32,R0
 36	0128	4801	        or      R0,R1
 37	012A	48D3	        or.b    $2,R3
 38	012C	4925	        bit     R4,R5
 39	012E	49F0	        bit.b   $32,R0
 40	0130	4A01	        bic     R0,R1
 41	0132	4AD3	        bic.b   $2,R3
 42	0134	4B25	        bis     R4,R5
 43	0136	4BF0	        bis.b   $32,R0
 44	0138	4C01	        mov     R0,R1
 45	013A	4C53	        mov.b   R2,R3
 46	013C	4CA5	        swap    R4,R5
 47	013E	4D06	        sra     R6
 48	0140	4D40	        sra.b   R0
 49	0142	4D08	        rrc     R0
 50	0144	4D49	        rrc.b   R1
 51	0146	4D1A	        swpb    R2
 52	0148	4D23	        sxt     R3
 53	    	     	
 54	014A	000C	Branch  bl      CPU
 55	014C	200B	        beq     CPU
 56	014E	200A	        bz      CPU
 57	0150	2409	        bne     CPU
 58	0152	2408	        bnz     CPU
 59	0154	2807	        bc      CPU
 60	0156	2806	        bhs     CPU
 61	0158	2C05	        bnc     CPU
 62	015A	2C04	        blo     CPU
 63	015C	3003	        bn      CPU
 64	015E	3402	        bge     CPU
 65	0160	3801	        blt     CPU
 66	0162	3C00	        bra     CPU
 67	    	     	
 68	0164	4D81	CPU     setpri  $1
 69	0166	4D92	        svc     $2
 70	0168	4DBF	        setcc   VSNZC
 71	016A	4DDF	        clrcc   VSNZC
 72	016C	5048	        cex     ne,$1,$0
 73	    	     	        
 74	016E	5801	LDST    ld      R0,R1
 75	0170	5C01	        st      R0,R1
 76	0172	8082	        ldr     R0,R1,R2
 77	0174	C081	        str     R0,R1,$1
 78	    	     	        
 79	    	     	        end Start

Successful completion of assembly - 2P

** Symbol table **

Constants (Equates)
Name                               	Type	Value	Decimal

Labels (Code)
Name                               	Type	Value	Decimal
LDST                               	REL	016E	366	PRI
CPU                                	REL	0164	356	PRI
Branch                             	REL	014A	330	PRI
Regs                               	REL	0108	264	PRI
MovX                               	REL	0100	256	PRI
Start                              	REL	0100	256	PRI

Labels (Data)
Name                               	Type	Value	Decimal

Registers
Name                               	Type	Value	Decimal
R7                                 	REG	0007	7	PRI
R6                                 	REG	0006	6	PRI
R5                                 	REG	0005	5	PRI
R4                                 	REG	0004	4	PRI
R3                                 	REG	0003	3	PRI
R2                                 	REG	0002	2	PRI
R1                                 	REG	0001	1	PRI
R0                                 	REG	0000	0	PRI

.XME file: .\assembler\scripts\Test10.xme

